target datalayout = "e-m:e-p270:32:32-p271:32:32-p272:64:64-i64:64-i128:128-f80:128-n8:16:32:64-S128"
target triple = "x86_64-pc-linux-gnu"

%class.CodeHeap = type { %class.VirtualSpace, %class.VirtualSpace, i64, i64, i64, i32, i64, ptr, ptr, i64, i32, i64, ptr, i32, i32, i32, i32, i32, i32 }
%class.VirtualSpace = type { ptr, ptr, ptr, ptr, i8, i8, ptr, ptr, ptr, ptr, ptr, ptr, i64, i64, i64 }

; Function Attrs: mustprogress nounwind uwtable
define linkonce_odr hidden noundef i32 @_Z12checked_castIimET_T0_(i64 noundef %0) #1 comdat {
  %2 = alloca i64, align 8
  %3 = alloca i32, align 4
  store i64 %0, ptr %2, align 8
  %4 = load i64, ptr %2, align 8
  %5 = trunc i64 %4 to i32
  store i32 %5, ptr %3, align 4
  %6 = load i32, ptr %3, align 4
  ret i32 %6
}

; Function Attrs: mustprogress nounwind uwtable
define linkonce_odr hidden noundef ptr @_ZNK12VirtualSpace3lowEv(ptr noundef nonnull align 8 dereferenceable(112) %0) #1 comdat align 2 {
  %2 = alloca ptr, align 8
  store ptr %0, ptr %2, align 8
  %3 = load ptr, ptr %2, align 8
  %4 = getelementptr inbounds %class.VirtualSpace, ptr %3, i32 0, i32 2
  %5 = load ptr, ptr %4, align 8
  ret ptr %5
}

; Function Attrs: mustprogress nounwind uwtable
define hidden noundef i32 @_ZN8CodeHeap11segmap_hopsEmm(ptr noundef nonnull align 8 dereferenceable(336) %0, i64 noundef %1, i64 noundef %2) #1 align 2 {
  %4 = alloca i32, align 4
  %5 = alloca ptr, align 8
  %6 = alloca i64, align 8
  %7 = alloca i64, align 8
  %8 = alloca ptr, align 8
  %9 = alloca i32, align 4
  %10 = alloca i32, align 4
  %11 = alloca i64, align 8
  store ptr %0, ptr %5, align 8
  store i64 %1, ptr %6, align 8
  store i64 %2, ptr %7, align 8
  %12 = load ptr, ptr %5, align 8
  %13 = load i64, ptr %6, align 8
  %14 = load i64, ptr %7, align 8
  %15 = icmp ult i64 %13, %14
  br i1 %15, label %16, label %60

16:                                               ; preds = %3
  %17 = getelementptr inbounds %class.CodeHeap, ptr %12, i32 0, i32 1
  %18 = call noundef ptr @_ZNK12VirtualSpace3lowEv(ptr noundef nonnull align 8 dereferenceable(112) %17)
  %19 = load i64, ptr %6, align 8
  %20 = getelementptr inbounds i8, ptr %18, i64 %19
  store ptr %20, ptr %8, align 8
  %21 = load i64, ptr %7, align 8
  %22 = load i64, ptr %6, align 8
  %23 = sub i64 %21, %22
  %24 = sub i64 %23, 1
  %25 = add i64 %24, 253
  %26 = udiv i64 %25, 254
  %27 = call noundef i32 @_Z12checked_castIimET_T0_(i64 noundef %26)
  store i32 %27, ptr %9, align 4
  store i32 0, ptr %10, align 4
  %28 = load i64, ptr %7, align 8
  %29 = load i64, ptr %6, align 8
  %30 = sub i64 %28, %29
  %31 = sub i64 %30, 1
  store i64 %31, ptr %11, align 8
  br label %32

32:                                               ; preds = %39, %16
  %33 = load ptr, ptr %8, align 8
  %34 = load i64, ptr %11, align 8
  %35 = getelementptr inbounds i8, ptr %33, i64 %34
  %36 = load i8, ptr %35, align 1
  %37 = zext i8 %36 to i32
  %38 = icmp sgt i32 %37, 0
  br i1 %38, label %39, label %49

39:                                               ; preds = %32
  %40 = load ptr, ptr %8, align 8
  %41 = load i64, ptr %11, align 8
  %42 = getelementptr inbounds i8, ptr %40, i64 %41
  %43 = load i8, ptr %42, align 1
  %44 = zext i8 %43 to i64
  %45 = load i64, ptr %11, align 8
  %46 = sub i64 %45, %44
  store i64 %46, ptr %11, align 8
  %47 = load i32, ptr %10, align 4
  %48 = add nsw i32 %47, 1
  store i32 %48, ptr %10, align 4
  br label %32, !llvm.loop !13

49:                                               ; preds = %32
  %50 = load i32, ptr %10, align 4
  %51 = load i32, ptr %9, align 4
  %52 = icmp sgt i32 %50, %51
  br i1 %52, label %53, label %57

53:                                               ; preds = %49
  %54 = load i32, ptr %10, align 4
  %55 = load i32, ptr %9, align 4
  %56 = sub nsw i32 %54, %55
  br label %58

57:                                               ; preds = %49
  br label %58

58:                                               ; preds = %57, %53
  %59 = phi i32 [ %56, %53 ], [ 0, %57 ]
  store i32 %59, ptr %4, align 4
  br label %61

60:                                               ; preds = %3
  store i32 0, ptr %4, align 4
  br label %61

61:                                               ; preds = %60, %58
  %62 = load i32, ptr %4, align 4
  ret i32 %62
}