; Function Attrs: mustprogress nofree norecurse nosync nounwind willreturn memory(read, inaccessiblemem: none) uwtable
define hidden noundef i32 @_ZN8CodeHeap11segmap_hopsEmm(ptr nocapture noundef nonnull readonly align 8 dereferenceable(336) %0, i64 noundef %1, i64 noundef %2) local_unnamed_addr #10 align 2 {
  %4 = icmp ult i64 %1, %2
  br i1 %4, label %5, label %25

5:                                                ; preds = %3
  %6 = getelementptr inbounds i8, ptr %0, i64 128
  %7 = load ptr, ptr %6, align 8
  %8 = getelementptr inbounds i8, ptr %7, i64 %1
  %9 = xor i64 %1, -1
  %10 = add i64 %9, %2
  %11 = add i64 %10, 253
  %12 = udiv i64 %11, 254
  %13 = trunc i64 %12 to i32
  %14 = getelementptr inbounds i8, ptr %8, i64 %10
  %15 = load i8, ptr %14, align 1
  %.not22 = icmp eq i8 %15, 0
  br i1 %.not22, label %._crit_edge, label %.lr.ph

.lr.ph:                                           ; preds = %5, %.lr.ph
  %16 = phi i8 [ %21, %.lr.ph ], [ %15, %5 ]
  %.024 = phi i64 [ %18, %.lr.ph ], [ %10, %5 ]
  %.01823 = phi i32 [ %19, %.lr.ph ], [ 0, %5 ]
  %17 = zext i8 %16 to i64
  %18 = sub i64 %.024, %17
  %19 = add nuw nsw i32 %.01823, 1
  %20 = getelementptr inbounds i8, ptr %8, i64 %18
  %21 = load i8, ptr %20, align 1
  %.not = icmp eq i8 %21, 0
  br i1 %.not, label %._crit_edge, label %.lr.ph, !llvm.loop !9

._crit_edge:                                      ; preds = %.lr.ph, %5
  %.018.lcssa = phi i32 [ 0, %5 ], [ %19, %.lr.ph ]
  %22 = icmp sgt i32 %.018.lcssa, %13
  %23 = sub nsw i32 %.018.lcssa, %13
  %24 = select i1 %22, i32 %23, i32 0
  br label %25

25:                                               ; preds = %3, %._crit_edge
  %.019 = phi i32 [ %24, %._crit_edge ], [ 0, %3 ]
  ret i32 %.019
}